target datalayout = "e-m:e-p270:32:32-p271:32:32-p272:64:64-i64:64-i128:128-f80:128-n8:16:32:64-S128"
target triple = "x86_64-pc-linux-gnu"

%struct.ntlmdata = type { i32, [8 x i8], i32, ptr }
%struct.Curl_easy = type { i32, i64, ptr, ptr, ptr, %struct.Curl_llist_element, %struct.Curl_llist_element, i32, i32, %struct.Curl_message, %struct.easy_pollset, %struct.Names, ptr, ptr, ptr, %struct.SingleRequest, %struct.UserDefined, ptr, ptr, %struct.Progress, %struct.UrlState, ptr, %struct.PureInfo, %struct.curl_tlssessioninfo }
%struct.Curl_llist_element = type { ptr, ptr, ptr }
%struct.Curl_message = type { %struct.Curl_llist_element, %struct.CURLMsg }
%struct.CURLMsg = type { i32, ptr, %union.anon }
%union.anon = type { ptr }
%struct.easy_pollset = type { [5 x i32], i32, [5 x i8] }
%struct.Names = type { ptr, i32 }
%struct.SingleRequest = type <{ i64, i64, i64, i64, i64, %struct.curltime, i32, i32, i32, i32, i64, i32, i32, %struct.curltime, i32, i32, ptr, i64, i64, ptr, ptr, i64, ptr, %union.anon.0, ptr, [2 x i8], i8, i16, [3 x i8] }>
%struct.curltime = type { i64, i32 }
%union.anon.0 = type { ptr }
%struct.UserDefined = type <{ ptr, ptr, ptr, ptr, ptr, ptr, i16, [6 x i8], i64, i64, i64, ptr, ptr, i64, i16, i16, [4 x i8], ptr, ptr, ptr, ptr, ptr, ptr, ptr, ptr, ptr, ptr, ptr, ptr, ptr, ptr, ptr, ptr, ptr, ptr, ptr, ptr, ptr, ptr, ptr, i32, i32, i32, i32, i64, i64, i64, i64, i64, i64, i64, i64, ptr, ptr, %struct.curl_mimepart, ptr, ptr, i64, i8, i8, i8, [5 x i8], %struct.ssl_config_data, %struct.ssl_config_data, ptr, i16, i8, i8, [4 x i8], %struct.ssl_general_config, i32, i32, i32, [4 x i8], ptr, ptr, i8, [7 x i8], i64, i8, i8, i8, i8, i32, ptr, ptr, ptr, i8, i8, [2 x i8], i32, [80 x ptr], [8 x ptr], i32, i32, i32, [4 x i8], ptr, ptr, ptr, ptr, ptr, i8, [3 x i8], i32, i32, [4 x i8], i64, %struct.Curl_data_priority, ptr, ptr, i64, ptr, ptr, ptr, ptr, ptr, i8, [3 x i8], i32, i8, i8, i56, [6 x i8] }>
%struct.curl_mimepart = type { ptr, ptr, i32, i32, ptr, ptr, ptr, ptr, ptr, ptr, ptr, ptr, ptr, ptr, ptr, i64, %struct.mime_state, ptr, %struct.mime_encoder_state, i64 }
%struct.mime_state = type { i32, ptr, i64 }
%struct.mime_encoder_state = type { i64, i64, i64, [256 x i8] }
%struct.ssl_config_data = type { %struct.ssl_primary_config, i64, ptr, ptr, ptr, ptr, ptr, ptr, ptr, i8 }
%struct.ssl_primary_config = type { ptr, ptr, ptr, ptr, ptr, ptr, ptr, ptr, ptr, ptr, ptr, ptr, i8, i32, i8, i8 }
%struct.ssl_general_config = type { i64, i32 }
%struct.Curl_data_priority = type { ptr, ptr, i32, i8 }
%struct.Progress = type { i64, i64, i64, i64, i64, i64, i32, i32, i64, i64, i64, i64, i64, i64, i64, i64, i64, i64, %struct.curltime, %struct.curltime, %struct.curltime, %struct.curltime, %struct.curltime, i64, %struct.curltime, i64, [6 x i64], [6 x %struct.curltime], i32, i8 }
%struct.UrlState = type { ptr, %struct.curltime, i64, i64, %struct.dynbuf, ptr, ptr, ptr, i64, ptr, i32, i32, i32, ptr, i64, [3 x %struct.tempbuf], i32, i32, ptr, i64, i32, ptr, %struct.digestdata, %struct.digestdata, %struct.auth, %struct.auth, %struct.Curl_async, ptr, %struct.curltime, %struct.Curl_tree, %struct.Curl_llist, [15 x %struct.time_node], ptr, i8, i64, ptr, i64, i64, %struct.Curl_data_priority, ptr, ptr, ptr, %struct.urlpieces, ptr, ptr, ptr, ptr, ptr, i64, %struct.dynbuf, %struct.Curl_llist, [2 x %struct.curl_header], ptr, i32, ptr, %struct.dynamically_allocated_data, i8, i8, i8, i8, i24 }
%struct.tempbuf = type { %struct.dynbuf, i32, i8 }
%struct.digestdata = type { ptr, ptr, ptr, ptr, ptr, ptr, i32, i8, i8 }
%struct.auth = type { i64, i64, i64, i8 }
%struct.Curl_async = type { ptr, ptr, ptr, ptr, i32, i32, i8 }
%struct.Curl_tree = type { ptr, ptr, ptr, ptr, %struct.curltime, ptr }
%struct.time_node = type { %struct.Curl_llist_element, %struct.curltime, i32 }
%struct.urlpieces = type { ptr, ptr, ptr, ptr, ptr, ptr, ptr, ptr }
%struct.dynbuf = type { ptr, i64, i64, i64 }
%struct.Curl_llist = type { ptr, ptr, ptr, i64 }
%struct.curl_header = type { ptr, ptr, i64, i64, i32, ptr }
%struct.dynamically_allocated_data = type { ptr, ptr, ptr, ptr, ptr, ptr, ptr, ptr, ptr, ptr, ptr, ptr, ptr, ptr }
%struct.PureInfo = type { i32, i32, i32, i64, i64, i64, i64, i64, ptr, ptr, i64, i32, [46 x i8], i32, i32, [46 x i8], i32, ptr, i32, %struct.curl_certinfo, i32, i8 }
%struct.curl_certinfo = type { i32, ptr }
%struct.curl_tlssessioninfo = type { i32, ptr }

@Curl_auth_decode_ntlm_type2_message.type2_marker = internal constant [4 x i8] c"\02\00\00\00", align 1
@.str = private unnamed_addr constant [8 x i8] c"NTLMSSP\00", align 1
@.str.1 = private unnamed_addr constant [44 x i8] c"NTLM handshake failure (bad type-2 message)\00", align 1
@Curl_cfree = external global ptr, align 8
@.str.9 = private unnamed_addr constant [97 x i8] c"NTLM handshake failure (bad type-2 message). Target Info Offset Len is set incorrect by the peer\00", align 1

; Function Attrs: nounwind uwtable
define internal i32 @ntlm_decode_type2_target(ptr noundef %0, ptr noundef %1, ptr noundef %2) #0 {
  %4 = alloca i32, align 4
  %5 = alloca ptr, align 8
  %6 = alloca ptr, align 8
  %7 = alloca ptr, align 8
  %8 = alloca i16, align 2
  %9 = alloca i32, align 4
  %10 = alloca ptr, align 8
  %11 = alloca i64, align 8
  store ptr %0, ptr %5, align 8
  store ptr %1, ptr %6, align 8
  store ptr %2, ptr %7, align 8
  store i16 0, ptr %8, align 2
  store i32 0, ptr %9, align 4
  %12 = load ptr, ptr %6, align 8
  %13 = call ptr @Curl_bufref_ptr(ptr noundef %12)
  store ptr %13, ptr %10, align 8
  %14 = load ptr, ptr %6, align 8
  %15 = call i64 @Curl_bufref_len(ptr noundef %14)
  store i64 %15, ptr %11, align 8
  %16 = load i64, ptr %11, align 8
  %17 = icmp uge i64 %16, 48
  br i1 %17, label %18, label %82

18:                                               ; preds = %3
  %19 = load ptr, ptr %10, align 8
  %20 = getelementptr inbounds i8, ptr %19, i64 40
  %21 = call zeroext i16 @Curl_read16_le(ptr noundef %20)
  store i16 %21, ptr %8, align 2
  %22 = load ptr, ptr %10, align 8
  %23 = getelementptr inbounds i8, ptr %22, i64 44
  %24 = call i32 @Curl_read32_le(ptr noundef %23)
  store i32 %24, ptr %9, align 4
  %25 = load i16, ptr %8, align 2
  %26 = zext i16 %25 to i32
  %27 = icmp sgt i32 %26, 0
  br i1 %27, label %28, label %81

28:                                               ; preds = %18
  %29 = load i32, ptr %9, align 4
  %30 = zext i32 %29 to i64
  %31 = load i64, ptr %11, align 8
  %32 = icmp ugt i64 %30, %31
  br i1 %32, label %44, label %33

33:                                               ; preds = %28
  %34 = load i32, ptr %9, align 4
  %35 = load i16, ptr %8, align 2
  %36 = zext i16 %35 to i32
  %37 = add i32 %34, %36
  %38 = zext i32 %37 to i64
  %39 = load i64, ptr %11, align 8
  %40 = icmp ugt i64 %38, %39
  br i1 %40, label %44, label %41

41:                                               ; preds = %33
  %42 = load i32, ptr %9, align 4
  %43 = icmp ult i32 %42, 48
  br i1 %43, label %44, label %61

44:                                               ; preds = %41, %33, %28
  br label %45

45:                                               ; preds = %44
  %46 = load ptr, ptr %5, align 8
  %47 = icmp ne ptr %46, null
  br i1 %47, label %48, label %59

48:                                               ; preds = %45
  %49 = load ptr, ptr %5, align 8
  %50 = getelementptr inbounds %struct.Curl_easy, ptr %49, i32 0, i32 16
  %51 = getelementptr inbounds %struct.UserDefined, ptr %50, i32 0, i32 122
  %52 = load i64, ptr %51, align 2
  %53 = lshr i64 %52, 28
  %54 = and i64 %53, 1
  %55 = trunc i64 %54 to i32
  %56 = icmp ne i32 %55, 0
  br i1 %56, label %57, label %59

57:                                               ; preds = %48
  %58 = load ptr, ptr %5, align 8
  call void (ptr, ptr, ...) @Curl_infof(ptr noundef %58, ptr noundef @.str.9)
  br label %59

59:                                               ; preds = %57, %48, %45
  br label %60

60:                                               ; preds = %59
  store i32 61, ptr %4, align 4
  br label %87

61:                                               ; preds = %41
  %62 = load ptr, ptr @Curl_cfree, align 8
  %63 = load ptr, ptr %7, align 8
  %64 = getelementptr inbounds %struct.ntlmdata, ptr %63, i32 0, i32 3
  %65 = load ptr, ptr %64, align 8
  call void %62(ptr noundef %65)
  %66 = load ptr, ptr %10, align 8
  %67 = load i32, ptr %9, align 4
  %68 = zext i32 %67 to i64
  %69 = getelementptr inbounds i8, ptr %66, i64 %68
  %70 = load i16, ptr %8, align 2
  %71 = zext i16 %70 to i64
  %72 = call ptr @Curl_memdup(ptr noundef %69, i64 noundef %71)
  %73 = load ptr, ptr %7, align 8
  %74 = getelementptr inbounds %struct.ntlmdata, ptr %73, i32 0, i32 3
  store ptr %72, ptr %74, align 8
  %75 = load ptr, ptr %7, align 8
  %76 = getelementptr inbounds %struct.ntlmdata, ptr %75, i32 0, i32 3
  %77 = load ptr, ptr %76, align 8
  %78 = icmp ne ptr %77, null
  br i1 %78, label %80, label %79

79:                                               ; preds = %61
  store i32 27, ptr %4, align 4
  br label %87

80:                                               ; preds = %61
  br label %81

81:                                               ; preds = %80, %18
  br label %82

82:                                               ; preds = %81, %3
  %83 = load i16, ptr %8, align 2
  %84 = zext i16 %83 to i32
  %85 = load ptr, ptr %7, align 8
  %86 = getelementptr inbounds %struct.ntlmdata, ptr %85, i32 0, i32 2
  store i32 %84, ptr %86, align 4
  store i32 0, ptr %4, align 4
  br label %87

87:                                               ; preds = %82, %79, %60
  %88 = load i32, ptr %4, align 4
  ret i32 %88
}

; Function Attrs: nounwind uwtable
define dso_local i32 @Curl_auth_decode_ntlm_type2_message(ptr noundef %0, ptr noundef %1, ptr noundef %2) #0 {
  %4 = alloca i32, align 4
  %5 = alloca ptr, align 8
  %6 = alloca ptr, align 8
  %7 = alloca ptr, align 8
  %8 = alloca i32, align 4
  %9 = alloca ptr, align 8
  %10 = alloca i64, align 8
  store ptr %0, ptr %5, align 8
  store ptr %1, ptr %6, align 8
  store ptr %2, ptr %7, align 8
  store i32 0, ptr %8, align 4
  %11 = load ptr, ptr %6, align 8
  %12 = call ptr @Curl_bufref_ptr(ptr noundef %11)
  store ptr %12, ptr %9, align 8
  %13 = load ptr, ptr %6, align 8
  %14 = call i64 @Curl_bufref_len(ptr noundef %13)
  store i64 %14, ptr %10, align 8
  %15 = load ptr, ptr %7, align 8
  %16 = getelementptr inbounds %struct.ntlmdata, ptr %15, i32 0, i32 0
  store i32 0, ptr %16, align 8
  %17 = load i64, ptr %10, align 8
  %18 = icmp ult i64 %17, 32
  br i1 %18, label %28, label %19

19:                                               ; preds = %3
  %20 = load ptr, ptr %9, align 8
  %21 = call i32 @memcmp(ptr noundef %20, ptr noundef @.str, i64 noundef 8) #5
  %22 = icmp ne i32 %21, 0
  br i1 %22, label %28, label %23

23:                                               ; preds = %19
  %24 = load ptr, ptr %9, align 8
  %25 = getelementptr inbounds i8, ptr %24, i64 8
  %26 = call i32 @memcmp(ptr noundef %25, ptr noundef @Curl_auth_decode_ntlm_type2_message.type2_marker, i64 noundef 4) #5
  %27 = icmp ne i32 %26, 0
  br i1 %27, label %28, label %45

28:                                               ; preds = %23, %19, %3
  br label %29

29:                                               ; preds = %28
  %30 = load ptr, ptr %5, align 8
  %31 = icmp ne ptr %30, null
  br i1 %31, label %32, label %43

32:                                               ; preds = %29
  %33 = load ptr, ptr %5, align 8
  %34 = getelementptr inbounds %struct.Curl_easy, ptr %33, i32 0, i32 16
  %35 = getelementptr inbounds %struct.UserDefined, ptr %34, i32 0, i32 122
  %36 = load i64, ptr %35, align 2
  %37 = lshr i64 %36, 28
  %38 = and i64 %37, 1
  %39 = trunc i64 %38 to i32
  %40 = icmp ne i32 %39, 0
  br i1 %40, label %41, label %43

41:                                               ; preds = %32
  %42 = load ptr, ptr %5, align 8
  call void (ptr, ptr, ...) @Curl_infof(ptr noundef %42, ptr noundef @.str.1)
  br label %43

43:                                               ; preds = %41, %32, %29
  br label %44

44:                                               ; preds = %43
  store i32 61, ptr %4, align 4
  br label %91

45:                                               ; preds = %23
  %46 = load ptr, ptr %9, align 8
  %47 = getelementptr inbounds i8, ptr %46, i64 20
  %48 = call i32 @Curl_read32_le(ptr noundef %47)
  %49 = load ptr, ptr %7, align 8
  %50 = getelementptr inbounds %struct.ntlmdata, ptr %49, i32 0, i32 0
  store i32 %48, ptr %50, align 8
  %51 = load ptr, ptr %7, align 8
  %52 = getelementptr inbounds %struct.ntlmdata, ptr %51, i32 0, i32 1
  %53 = getelementptr inbounds [8 x i8], ptr %52, i64 0, i64 0
  %54 = load ptr, ptr %9, align 8
  %55 = getelementptr inbounds i8, ptr %54, i64 24
  call void @llvm.memcpy.p0.p0.i64(ptr align 4 %53, ptr align 1 %55, i64 8, i1 false)
  %56 = load ptr, ptr %7, align 8
  %57 = getelementptr inbounds %struct.ntlmdata, ptr %56, i32 0, i32 0
  %58 = load i32, ptr %57, align 8
  %59 = and i32 %58, 8388608
  %60 = icmp ne i32 %59, 0
  br i1 %60, label %61, label %87

61:                                               ; preds = %45
  %62 = load ptr, ptr %5, align 8
  %63 = load ptr, ptr %6, align 8
  %64 = load ptr, ptr %7, align 8
  %65 = call i32 @ntlm_decode_type2_target(ptr noundef %62, ptr noundef %63, ptr noundef %64)
  store i32 %65, ptr %8, align 4
  %66 = load i32, ptr %8, align 4
  %67 = icmp ne i32 %66, 0
  br i1 %67, label %68, label %86

68:                                               ; preds = %61
  br label %69

69:                                               ; preds = %68
  %70 = load ptr, ptr %5, align 8
  %71 = icmp ne ptr %70, null
  br i1 %71, label %72, label %83

72:                                               ; preds = %69
  %73 = load ptr, ptr %5, align 8
  %74 = getelementptr inbounds %struct.Curl_easy, ptr %73, i32 0, i32 16
  %75 = getelementptr inbounds %struct.UserDefined, ptr %74, i32 0, i32 122
  %76 = load i64, ptr %75, align 2
  %77 = lshr i64 %76, 28
  %78 = and i64 %77, 1
  %79 = trunc i64 %78 to i32
  %80 = icmp ne i32 %79, 0
  br i1 %80, label %81, label %83

81:                                               ; preds = %72
  %82 = load ptr, ptr %5, align 8
  call void (ptr, ptr, ...) @Curl_infof(ptr noundef %82, ptr noundef @.str.1)
  br label %83

83:                                               ; preds = %81, %72, %69
  br label %84

84:                                               ; preds = %83
  %85 = load i32, ptr %8, align 4
  store i32 %85, ptr %4, align 4
  br label %91

86:                                               ; preds = %61
  br label %87

87:                                               ; preds = %86, %45
  br label %88

88:                                               ; preds = %87
  br label %89

89:                                               ; preds = %88
  %90 = load i32, ptr %8, align 4
  store i32 %90, ptr %4, align 4
  br label %91

91:                                               ; preds = %89, %84, %44
  %92 = load i32, ptr %4, align 4
  ret i32 %92
}