; Function Attrs: nounwind uwtable
define dso_local range(i32 0, 62) i32 @Curl_auth_decode_ntlm_type2_message(ptr noundef %0, ptr noundef %1, ptr noundef captures(none) initializes((0, 4)) %2) local_unnamed_addr #1 {
  %4 = tail call ptr @Curl_bufref_ptr(ptr noundef %1) #7
  %5 = tail call i64 @Curl_bufref_len(ptr noundef %1) #7
  store i32 0, ptr %2, align 8
  %6 = icmp ult i64 %5, 32
  br i1 %6, label %10, label %7

7:                                                ; preds = %3
  %bcmp = tail call i32 @bcmp(ptr noundef nonnull dereferenceable(8) %4, ptr noundef nonnull dereferenceable(8) @.str, i64 8)
  %.not = icmp eq i32 %bcmp, 0
  br i1 %.not, label %8, label %10

8:                                                ; preds = %7
  %9 = getelementptr inbounds nuw i8, ptr %4, i64 8
  %bcmp27 = tail call i32 @bcmp(ptr noundef nonnull dereferenceable(4) %9, ptr noundef nonnull dereferenceable(4) @Curl_auth_decode_ntlm_type2_message.type2_marker, i64 4)
  %.not28 = icmp eq i32 %bcmp27, 0
  br i1 %.not28, label %16, label %10

10:                                               ; preds = %3, %7, %8
  %.not33 = icmp eq ptr %0, null
  br i1 %.not33, label %.thread41, label %11

11:                                               ; preds = %10
  %12 = getelementptr inbounds nuw i8, ptr %0, i64 2642
  %13 = load i64, ptr %12, align 2
  %14 = and i64 %13, 268435456
  %.not34 = icmp eq i64 %14, 0
  br i1 %.not34, label %.thread41, label %15

15:                                               ; preds = %11
  tail call void (ptr, ptr, ...) @Curl_infof(ptr noundef nonnull %0, ptr noundef nonnull @.str.1) #7
  br label %.thread41

16:                                               ; preds = %8
  %17 = getelementptr inbounds nuw i8, ptr %4, i64 20
  %18 = tail call i32 @Curl_read32_le(ptr noundef nonnull %17) #7
  store i32 %18, ptr %2, align 8
  %19 = getelementptr inbounds nuw i8, ptr %2, i64 4
  %20 = getelementptr inbounds nuw i8, ptr %4, i64 24
  %21 = load i64, ptr %20, align 1
  store i64 %21, ptr %19, align 4
  %22 = and i32 %18, 8388608
  %.not29 = icmp eq i32 %22, 0
  br i1 %.not29, label %.thread41, label %23

23:                                               ; preds = %16
  %24 = tail call ptr @Curl_bufref_ptr(ptr noundef %1) #7
  %25 = tail call i64 @Curl_bufref_len(ptr noundef %1) #7
  %26 = icmp ugt i64 %25, 47
  br i1 %26, label %27, label %ntlm_decode_type2_target.exit

27:                                               ; preds = %23
  %28 = getelementptr inbounds nuw i8, ptr %24, i64 40
  %29 = tail call zeroext i16 @Curl_read16_le(ptr noundef nonnull %28) #7
  %30 = getelementptr inbounds nuw i8, ptr %24, i64 44
  %31 = tail call i32 @Curl_read32_le(ptr noundef nonnull %30) #7
  %32 = zext i16 %29 to i32
  %.not.i = icmp eq i16 %29, 0
  br i1 %.not.i, label %ntlm_decode_type2_target.exit, label %33

33:                                               ; preds = %27
  %34 = zext i32 %31 to i64
  %35 = icmp ult i64 %25, %34
  br i1 %35, label %41, label %36

36:                                               ; preds = %33
  %37 = add i32 %31, %32
  %38 = zext i32 %37 to i64
  %39 = icmp ult i64 %25, %38
  %40 = icmp ult i32 %31, 48
  %or.cond.i = select i1 %39, i1 true, i1 %40
  br i1 %or.cond.i, label %41, label %47

41:                                               ; preds = %36, %33
  %.not30.i = icmp eq ptr %0, null
  br i1 %.not30.i, label %.thread41, label %42

42:                                               ; preds = %41
  %43 = getelementptr inbounds nuw i8, ptr %0, i64 2642
  %44 = load i64, ptr %43, align 2
  %45 = and i64 %44, 268435456
  %.not31.i = icmp eq i64 %45, 0
  br i1 %.not31.i, label %.thread, label %46

46:                                               ; preds = %42
  tail call void (ptr, ptr, ...) @Curl_infof(ptr noundef nonnull %0, ptr noundef nonnull @.str.9) #7
  br label %.thread

47:                                               ; preds = %36
  %48 = load ptr, ptr @Curl_cfree, align 8
  %49 = getelementptr inbounds nuw i8, ptr %2, i64 16
  %50 = load ptr, ptr %49, align 8
  tail call void %48(ptr noundef %50) #7
  %51 = getelementptr inbounds nuw i8, ptr %24, i64 %34
  %52 = zext i16 %29 to i64
  %53 = tail call ptr @Curl_memdup(ptr noundef %51, i64 noundef %52) #7
  store ptr %53, ptr %49, align 8
  %.not29.i = icmp eq ptr %53, null
  br i1 %.not29.i, label %56, label %ntlm_decode_type2_target.exit

ntlm_decode_type2_target.exit:                    ; preds = %23, %27, %47
  %.024.i = phi i16 [ %29, %47 ], [ 0, %27 ], [ 0, %23 ]
  %54 = zext i16 %.024.i to i32
  %55 = getelementptr inbounds nuw i8, ptr %2, i64 12
  store i32 %54, ptr %55, align 4
  br label %.thread41

56:                                               ; preds = %47
  %.not31 = icmp eq ptr %0, null
  br i1 %.not31, label %.thread41, label %.thread

.thread:                                          ; preds = %46, %42, %56
  %.0.i.ph40 = phi i32 [ 27, %56 ], [ 61, %42 ], [ 61, %46 ]
  %57 = getelementptr inbounds nuw i8, ptr %0, i64 2642
  %58 = load i64, ptr %57, align 2
  %59 = and i64 %58, 268435456
  %.not32 = icmp eq i64 %59, 0
  br i1 %.not32, label %.thread41, label %60

60:                                               ; preds = %.thread
  tail call void (ptr, ptr, ...) @Curl_infof(ptr noundef nonnull %0, ptr noundef nonnull @.str.1) #7
  br label %.thread41

.thread41:                                        ; preds = %41, %ntlm_decode_type2_target.exit, %16, %60, %.thread, %56, %15, %11, %10
  %.0 = phi i32 [ 61, %10 ], [ 61, %11 ], [ 61, %15 ], [ 27, %56 ], [ %.0.i.ph40, %.thread ], [ %.0.i.ph40, %60 ], [ 0, %ntlm_decode_type2_target.exit ], [ 0, %16 ], [ 61, %41 ]
  ret i32 %.0
}